target datalayout = "e-m:e-p270:32:32-p271:32:32-p272:64:64-i64:64-i128:128-f80:128-n8:16:32:64-S128"
target triple = "x86_64-pc-linux-gnu"

%struct.PJconsts = type { ptr, ptr, ptr, ptr, ptr, ptr, ptr, ptr, ptr, ptr, ptr, ptr, i32, ptr, ptr, ptr, ptr, ptr, ptr, ptr, ptr, double, double, double, double, double, double, double, double, double, double, double, double, double, double, double, double, double, double, double, double, double, double, i32, i32, i32, i32, i32, i32, i32, i32, i32, i32, i32, ptr, ptr, ptr, ptr, ptr, ptr, double, double, double, double, double, double, double, double, double, double, double, i32, [7 x double], i32, ptr, ptr, double, double, i32, [4 x i8], %"class.std::shared_ptr", i8, double, i8, %"class.std::__cxx11::basic_string", %"class.std::__cxx11::basic_string", %"class.std::__cxx11::basic_string", i8, %"class.std::vector", i32, %"class.std::vector.3", i32, i8, i8, i8, ptr }
%"class.std::shared_ptr" = type { %"class.std::__shared_ptr" }
%"class.std::__shared_ptr" = type { ptr, %"class.std::__shared_count" }
%"class.std::__shared_count" = type { ptr }
%"class.std::__cxx11::basic_string" = type { %"struct.std::__cxx11::basic_string<char>::_Alloc_hider", i64, %union.anon }
%"struct.std::__cxx11::basic_string<char>::_Alloc_hider" = type { ptr }
%union.anon = type { i64, [8 x i8] }
%"class.std::vector" = type { %"struct.std::_Vector_base" }
%"struct.std::_Vector_base" = type { %"struct.std::_Vector_base<osgeo::proj::operation::GridDescription, std::allocator<osgeo::proj::operation::GridDescription>>::_Vector_impl" }
%"struct.std::_Vector_base<osgeo::proj::operation::GridDescription, std::allocator<osgeo::proj::operation::GridDescription>>::_Vector_impl" = type { %"struct.std::_Vector_base<osgeo::proj::operation::GridDescription, std::allocator<osgeo::proj::operation::GridDescription>>::_Vector_impl_data" }
%"struct.std::_Vector_base<osgeo::proj::operation::GridDescription, std::allocator<osgeo::proj::operation::GridDescription>>::_Vector_impl_data" = type { ptr, ptr, ptr }
%"class.std::vector.3" = type { %"struct.std::_Vector_base.4" }
%"struct.std::_Vector_base.4" = type { %"struct.std::_Vector_base<PJCoordOperation, std::allocator<PJCoordOperation>>::_Vector_impl" }
%"struct.std::_Vector_base<PJCoordOperation, std::allocator<PJCoordOperation>>::_Vector_impl" = type { %"struct.std::_Vector_base<PJCoordOperation, std::allocator<PJCoordOperation>>::_Vector_impl_data" }
%"struct.std::_Vector_base<PJCoordOperation, std::allocator<PJCoordOperation>>::_Vector_impl_data" = type { ptr, ptr, ptr }
%struct.PJ_LP = type { double, double }
%struct.PJ_XY = type { double, double }

; Function Attrs: mustprogress uwtable
define internal { double, double } @_ZL14poly_s_inverse5PJ_XYP8PJconsts(double %0, double %1, ptr noundef %2) #0 {
  %4 = alloca %struct.PJ_LP, align 8
  %5 = alloca %struct.PJ_XY, align 8
  %6 = alloca ptr, align 8
  %7 = alloca double, align 8
  %8 = alloca i32, align 4
  %9 = alloca double, align 8
  %10 = alloca double, align 8
  %11 = alloca i32, align 4
  %12 = getelementptr inbounds nuw { double, double }, ptr %5, i32 0, i32 0
  store double %0, ptr %12, align 8
  %13 = getelementptr inbounds nuw { double, double }, ptr %5, i32 0, i32 1
  store double %1, ptr %13, align 8
  store ptr %2, ptr %6, align 8, !tbaa !3
  call void @llvm.memset.p0.i64(ptr align 8 %4, i8 0, i64 16, i1 false)
  %14 = load ptr, ptr %6, align 8, !tbaa !3
  %15 = getelementptr inbounds nuw %struct.PJconsts, ptr %14, i32 0, i32 61
  %16 = load double, ptr %15, align 8, !tbaa !50
  %17 = getelementptr inbounds nuw %struct.PJ_XY, ptr %5, i32 0, i32 1
  %18 = load double, ptr %17, align 8, !tbaa !55
  %19 = fadd double %16, %18
  %20 = getelementptr inbounds nuw %struct.PJ_XY, ptr %5, i32 0, i32 1
  store double %19, ptr %20, align 8, !tbaa !55
  %21 = call double @llvm.fabs.f64(double %19)
  %22 = fcmp ole double %21, 1.000000e-10
  br i1 %22, label %23, label %28

23:                                               ; preds = %3
  %24 = getelementptr inbounds nuw %struct.PJ_XY, ptr %5, i32 0, i32 0
  %25 = load double, ptr %24, align 8, !tbaa !57
  %26 = getelementptr inbounds nuw %struct.PJ_LP, ptr %4, i32 0, i32 0
  store double %25, ptr %26, align 8, !tbaa !58
  %27 = getelementptr inbounds nuw %struct.PJ_LP, ptr %4, i32 0, i32 1
  store double 0.000000e+00, ptr %27, align 8, !tbaa !60
  br label %112

28:                                               ; preds = %3
  %29 = getelementptr inbounds nuw %struct.PJ_XY, ptr %5, i32 0, i32 1
  %30 = load double, ptr %29, align 8, !tbaa !55
  %31 = getelementptr inbounds nuw %struct.PJ_LP, ptr %4, i32 0, i32 1
  store double %30, ptr %31, align 8, !tbaa !60
  call void @llvm.lifetime.start.p0(i64 8, ptr %7) #8
  %32 = getelementptr inbounds nuw %struct.PJ_XY, ptr %5, i32 0, i32 0
  %33 = load double, ptr %32, align 8, !tbaa !57
  %34 = getelementptr inbounds nuw %struct.PJ_XY, ptr %5, i32 0, i32 0
  %35 = load double, ptr %34, align 8, !tbaa !57
  %36 = getelementptr inbounds nuw %struct.PJ_XY, ptr %5, i32 0, i32 1
  %37 = load double, ptr %36, align 8, !tbaa !55
  %38 = getelementptr inbounds nuw %struct.PJ_XY, ptr %5, i32 0, i32 1
  %39 = load double, ptr %38, align 8, !tbaa !55
  %40 = fmul double %37, %39
  %41 = call double @llvm.fmuladd.f64(double %33, double %35, double %40)
  store double %41, ptr %7, align 8, !tbaa !61
  call void @llvm.lifetime.start.p0(i64 4, ptr %8) #8
  store i32 10, ptr %8, align 4, !tbaa !51
  br label %42

42:                                               ; preds = %95, %28
  br label %43

43:                                               ; preds = %42
  call void @llvm.lifetime.start.p0(i64 8, ptr %9) #8
  %44 = getelementptr inbounds nuw %struct.PJ_LP, ptr %4, i32 0, i32 1
  %45 = load double, ptr %44, align 8, !tbaa !60
  %46 = call double @tan(double noundef %45) #8, !tbaa !51
  store double %46, ptr %9, align 8, !tbaa !61
  call void @llvm.lifetime.start.p0(i64 8, ptr %10) #8
  %47 = getelementptr inbounds nuw %struct.PJ_XY, ptr %5, i32 0, i32 1
  %48 = load double, ptr %47, align 8, !tbaa !55
  %49 = getelementptr inbounds nuw %struct.PJ_LP, ptr %4, i32 0, i32 1
  %50 = load double, ptr %49, align 8, !tbaa !60
  %51 = load double, ptr %9, align 8, !tbaa !61
  %52 = call double @llvm.fmuladd.f64(double %50, double %51, double 1.000000e+00)
  %53 = getelementptr inbounds nuw %struct.PJ_LP, ptr %4, i32 0, i32 1
  %54 = load double, ptr %53, align 8, !tbaa !60
  %55 = fneg double %54
  %56 = call double @llvm.fmuladd.f64(double %48, double %52, double %55)
  %57 = getelementptr inbounds nuw %struct.PJ_LP, ptr %4, i32 0, i32 1
  %58 = load double, ptr %57, align 8, !tbaa !60
  %59 = getelementptr inbounds nuw %struct.PJ_LP, ptr %4, i32 0, i32 1
  %60 = load double, ptr %59, align 8, !tbaa !60
  %61 = load double, ptr %7, align 8, !tbaa !61
  %62 = call double @llvm.fmuladd.f64(double %58, double %60, double %61)
  %63 = fmul double 5.000000e-01, %62
  %64 = load double, ptr %9, align 8, !tbaa !61
  %65 = fneg double %63
  %66 = call double @llvm.fmuladd.f64(double %65, double %64, double %56)
  %67 = getelementptr inbounds nuw %struct.PJ_LP, ptr %4, i32 0, i32 1
  %68 = load double, ptr %67, align 8, !tbaa !60
  %69 = getelementptr inbounds nuw %struct.PJ_XY, ptr %5, i32 0, i32 1
  %70 = load double, ptr %69, align 8, !tbaa !55
  %71 = fsub double %68, %70
  %72 = load double, ptr %9, align 8, !tbaa !61
  %73 = fdiv double %71, %72
  %74 = fsub double %73, 1.000000e+00
  %75 = fdiv double %66, %74
  store double %75, ptr %10, align 8, !tbaa !61
  %76 = load double, ptr %10, align 8, !tbaa !61
  %77 = getelementptr inbounds nuw %struct.PJ_LP, ptr %4, i32 0, i32 1
  %78 = load double, ptr %77, align 8, !tbaa !60
  %79 = fsub double %78, %76
  store double %79, ptr %77, align 8, !tbaa !60
  %80 = load double, ptr %10, align 8, !tbaa !61
  %81 = call double @llvm.fabs.f64(double %80)
  %82 = fcmp ogt double %81, 1.000000e-10
  br i1 %82, label %84, label %83

83:                                               ; preds = %43
  store i32 3, ptr %11, align 4
  br label %93

84:                                               ; preds = %43
  %85 = load i32, ptr %8, align 4, !tbaa !51
  %86 = add nsw i32 %85, -1
  store i32 %86, ptr %8, align 4, !tbaa !51
  %87 = load i32, ptr %8, align 4, !tbaa !51
  %88 = icmp eq i32 %87, 0
  br i1 %88, label %89, label %92

89:                                               ; preds = %84
  %90 = load ptr, ptr %6, align 8, !tbaa !3
  %91 = call i32 @proj_errno_set(ptr noundef %90, i32 noundef 2050)
  store i32 1, ptr %11, align 4
  br label %93

92:                                               ; preds = %84
  store i32 0, ptr %11, align 4
  br label %93

93:                                               ; preds = %92, %89, %83
  call void @llvm.lifetime.end.p0(i64 8, ptr %10) #8
  call void @llvm.lifetime.end.p0(i64 8, ptr %9) #8
  %94 = load i32, ptr %11, align 4
  switch i32 %94, label %109 [
    i32 0, label %95
    i32 3, label %96
  ]

95:                                               ; preds = %93
  br label %42, !llvm.loop !65

96:                                               ; preds = %93
  %97 = getelementptr inbounds nuw %struct.PJ_XY, ptr %5, i32 0, i32 0
  %98 = load double, ptr %97, align 8, !tbaa !57
  %99 = getelementptr inbounds nuw %struct.PJ_LP, ptr %4, i32 0, i32 1
  %100 = load double, ptr %99, align 8, !tbaa !60
  %101 = call double @tan(double noundef %100) #8, !tbaa !51
  %102 = fmul double %98, %101
  %103 = call double @asin(double noundef %102) #8, !tbaa !51
  %104 = getelementptr inbounds nuw %struct.PJ_LP, ptr %4, i32 0, i32 1
  %105 = load double, ptr %104, align 8, !tbaa !60
  %106 = call double @sin(double noundef %105) #8, !tbaa !51
  %107 = fdiv double %103, %106
  %108 = getelementptr inbounds nuw %struct.PJ_LP, ptr %4, i32 0, i32 0
  store double %107, ptr %108, align 8, !tbaa !58
  store i32 0, ptr %11, align 4
  br label %109

109:                                              ; preds = %96, %93
  call void @llvm.lifetime.end.p0(i64 4, ptr %8) #8
  call void @llvm.lifetime.end.p0(i64 8, ptr %7) #8
  %110 = load i32, ptr %11, align 4
  switch i32 %110, label %115 [
    i32 0, label %111
    i32 1, label %113
  ]

111:                                              ; preds = %109
  br label %112

112:                                              ; preds = %111, %23
  br label %113

113:                                              ; preds = %112, %109
  %114 = load { double, double }, ptr %4, align 8
  ret { double, double } %114

115:                                              ; preds = %109
  unreachable
}