; Function Attrs: mustprogress uwtable
define internal { double, double } @_ZL14poly_s_inverse5PJ_XYP8PJconsts(double %0, double %1, ptr noundef %2) #0 {
  %4 = getelementptr inbounds nuw i8, ptr %2, i64 448
  %5 = load double, ptr %4, align 8, !tbaa !47
  %6 = fadd double %1, %5
  %7 = tail call double @llvm.fabs.f64(double %6)
  %8 = fcmp ugt double %7, 1.000000e-10
  br i1 %8, label %9, label %37

9:                                                ; preds = %3
  %10 = fmul double %6, %6
  %11 = tail call double @llvm.fmuladd.f64(double %0, double %0, double %10)
  br label %12

12:                                               ; preds = %27, %9
  %.027 = phi i32 [ 10, %9 ], [ %28, %27 ]
  %.sroa.4.0 = phi double [ %6, %9 ], [ %24, %27 ]
  %13 = tail call double @tan(double noundef %.sroa.4.0) #8, !tbaa !48
  %14 = tail call double @llvm.fmuladd.f64(double %.sroa.4.0, double %13, double 1.000000e+00)
  %15 = fneg double %.sroa.4.0
  %16 = tail call double @llvm.fmuladd.f64(double %6, double %14, double %15)
  %17 = tail call double @llvm.fmuladd.f64(double %.sroa.4.0, double %.sroa.4.0, double %11)
  %18 = fmul double %17, -5.000000e-01
  %19 = tail call double @llvm.fmuladd.f64(double %18, double %13, double %16)
  %20 = fsub double %.sroa.4.0, %6
  %21 = fdiv double %20, %13
  %22 = fadd double %21, -1.000000e+00
  %23 = fdiv double %19, %22
  %24 = fsub double %.sroa.4.0, %23
  %25 = tail call double @llvm.fabs.f64(double %23)
  %26 = fcmp ogt double %25, 1.000000e-10
  br i1 %26, label %27, label %31

27:                                               ; preds = %12
  %28 = add nsw i32 %.027, -1
  %29 = icmp eq i32 %28, 0
  br i1 %29, label %.thread, label %12

.thread:                                          ; preds = %27
  %30 = tail call i32 @proj_errno_set(ptr noundef %2, i32 noundef 2050)
  br label %37

31:                                               ; preds = %12
  %32 = tail call double @tan(double noundef %24) #8, !tbaa !48
  %33 = fmul double %0, %32
  %34 = tail call double @asin(double noundef %33) #8, !tbaa !48
  %35 = tail call double @sin(double noundef %24) #8, !tbaa !48
  %36 = fdiv double %34, %35
  br label %37

37:                                               ; preds = %.thread, %31, %3
  %.sroa.4.1 = phi double [ 0.000000e+00, %3 ], [ %24, %31 ], [ %24, %.thread ]
  %.sroa.018.1 = phi double [ %0, %3 ], [ %36, %31 ], [ 0.000000e+00, %.thread ]
  %.fca.0.insert = insertvalue { double, double } poison, double %.sroa.018.1, 0
  %.fca.1.insert = insertvalue { double, double } %.fca.0.insert, double %.sroa.4.1, 1
  ret { double, double } %.fca.1.insert
}